target datalayout = "e-m:e-p270:32:32-p271:32:32-p272:64:64-i64:64-i128:128-f80:128-n8:16:32:64-S128"
target triple = "x86_64-pc-linux-gnu"

%struct.OSQPSolver = type { ptr, ptr, ptr, ptr }
%struct.OSQPWorkspace_ = type { ptr, ptr, ptr, ptr, ptr, ptr, ptr, ptr, ptr, ptr, ptr, ptr, ptr, ptr, ptr, ptr, ptr, ptr, ptr, ptr, ptr, ptr, ptr, ptr, ptr, ptr, double, double, double, ptr, i64, i64, i64, i64, ptr }
%struct.OSQPData = type { i64, i64, ptr, ptr, ptr, ptr, ptr }
%struct.OSQPSettings = type { i64, i32, i64, i64, i64, i64, i64, i64, double, i64, double, double, i64, i64, double, i32, i64, i64, double, double, i64, double, double, double, double, i64, i64, double, double, i64 }
%struct.OSQPScaling = type { double, ptr, ptr, double, ptr, ptr }

; Function Attrs: nounwind uwtable
define i64 @is_primal_infeasible(ptr noundef %0, double noundef %1) #0 {
  %3 = alloca i64, align 8
  %4 = alloca ptr, align 8
  %5 = alloca double, align 8
  %6 = alloca double, align 8
  %7 = alloca double, align 8
  %8 = alloca ptr, align 8
  %9 = alloca ptr, align 8
  store ptr %0, ptr %4, align 8
  store double %1, ptr %5, align 8
  store double 0.000000e+00, ptr %7, align 8
  %10 = load ptr, ptr %4, align 8
  %11 = getelementptr inbounds %struct.OSQPSolver, ptr %10, i32 0, i32 0
  %12 = load ptr, ptr %11, align 8
  store ptr %12, ptr %8, align 8
  %13 = load ptr, ptr %4, align 8
  %14 = getelementptr inbounds %struct.OSQPSolver, ptr %13, i32 0, i32 3
  %15 = load ptr, ptr %14, align 8
  store ptr %15, ptr %9, align 8
  %16 = load ptr, ptr %9, align 8
  %17 = getelementptr inbounds %struct.OSQPWorkspace_, ptr %16, i32 0, i32 17
  %18 = load ptr, ptr %17, align 8
  %19 = load ptr, ptr %9, align 8
  %20 = getelementptr inbounds %struct.OSQPWorkspace_, ptr %19, i32 0, i32 0
  %21 = load ptr, ptr %20, align 8
  %22 = getelementptr inbounds %struct.OSQPData, ptr %21, i32 0, i32 5
  %23 = load ptr, ptr %22, align 8
  %24 = load ptr, ptr %9, align 8
  %25 = getelementptr inbounds %struct.OSQPWorkspace_, ptr %24, i32 0, i32 0
  %26 = load ptr, ptr %25, align 8
  %27 = getelementptr inbounds %struct.OSQPData, ptr %26, i32 0, i32 6
  %28 = load ptr, ptr %27, align 8
  call void @OSQPVectorf_project_polar_reccone(ptr noundef %18, ptr noundef %23, ptr noundef %28, double noundef 1.000000e+26)
  %29 = load ptr, ptr %8, align 8
  %30 = getelementptr inbounds %struct.OSQPSettings, ptr %29, i32 0, i32 6
  %31 = load i64, ptr %30, align 8
  %32 = icmp ne i64 %31, 0
  br i1 %32, label %33, label %54

33:                                               ; preds = %2
  %34 = load ptr, ptr %8, align 8
  %35 = getelementptr inbounds %struct.OSQPSettings, ptr %34, i32 0, i32 25
  %36 = load i64, ptr %35, align 8
  %37 = icmp ne i64 %36, 0
  br i1 %37, label %54, label %38

38:                                               ; preds = %33
  %39 = load ptr, ptr %9, align 8
  %40 = getelementptr inbounds %struct.OSQPWorkspace_, ptr %39, i32 0, i32 21
  %41 = load ptr, ptr %40, align 8
  %42 = load ptr, ptr %9, align 8
  %43 = getelementptr inbounds %struct.OSQPWorkspace_, ptr %42, i32 0, i32 25
  %44 = load ptr, ptr %43, align 8
  %45 = getelementptr inbounds %struct.OSQPScaling, ptr %44, i32 0, i32 2
  %46 = load ptr, ptr %45, align 8
  %47 = load ptr, ptr %9, align 8
  %48 = getelementptr inbounds %struct.OSQPWorkspace_, ptr %47, i32 0, i32 17
  %49 = load ptr, ptr %48, align 8
  call void @OSQPVectorf_ew_prod(ptr noundef %41, ptr noundef %46, ptr noundef %49)
  %50 = load ptr, ptr %9, align 8
  %51 = getelementptr inbounds %struct.OSQPWorkspace_, ptr %50, i32 0, i32 21
  %52 = load ptr, ptr %51, align 8
  %53 = call double @OSQPVectorf_norm_inf(ptr noundef %52)
  store double %53, ptr %6, align 8
  br label %59

54:                                               ; preds = %33, %2
  %55 = load ptr, ptr %9, align 8
  %56 = getelementptr inbounds %struct.OSQPWorkspace_, ptr %55, i32 0, i32 17
  %57 = load ptr, ptr %56, align 8
  %58 = call double @OSQPVectorf_norm_inf(ptr noundef %57)
  store double %58, ptr %6, align 8
  br label %59

59:                                               ; preds = %54, %38
  %60 = load double, ptr %6, align 8
  %61 = fcmp ogt double %60, 0x39B4484BFEEBC29F
  br i1 %61, label %62, label %130

62:                                               ; preds = %59
  %63 = load ptr, ptr %9, align 8
  %64 = getelementptr inbounds %struct.OSQPWorkspace_, ptr %63, i32 0, i32 0
  %65 = load ptr, ptr %64, align 8
  %66 = getelementptr inbounds %struct.OSQPData, ptr %65, i32 0, i32 6
  %67 = load ptr, ptr %66, align 8
  %68 = load ptr, ptr %9, align 8
  %69 = getelementptr inbounds %struct.OSQPWorkspace_, ptr %68, i32 0, i32 17
  %70 = load ptr, ptr %69, align 8
  %71 = call double @OSQPVectorf_dot_prod_signed(ptr noundef %67, ptr noundef %70, i64 noundef 1)
  store double %71, ptr %7, align 8
  %72 = load ptr, ptr %9, align 8
  %73 = getelementptr inbounds %struct.OSQPWorkspace_, ptr %72, i32 0, i32 0
  %74 = load ptr, ptr %73, align 8
  %75 = getelementptr inbounds %struct.OSQPData, ptr %74, i32 0, i32 5
  %76 = load ptr, ptr %75, align 8
  %77 = load ptr, ptr %9, align 8
  %78 = getelementptr inbounds %struct.OSQPWorkspace_, ptr %77, i32 0, i32 17
  %79 = load ptr, ptr %78, align 8
  %80 = call double @OSQPVectorf_dot_prod_signed(ptr noundef %76, ptr noundef %79, i64 noundef -1)
  %81 = load double, ptr %7, align 8
  %82 = fadd double %81, %80
  store double %82, ptr %7, align 8
  %83 = load double, ptr %7, align 8
  %84 = fcmp olt double %83, 0.000000e+00
  br i1 %84, label %85, label %129

85:                                               ; preds = %62
  %86 = load ptr, ptr %9, align 8
  %87 = getelementptr inbounds %struct.OSQPWorkspace_, ptr %86, i32 0, i32 0
  %88 = load ptr, ptr %87, align 8
  %89 = getelementptr inbounds %struct.OSQPData, ptr %88, i32 0, i32 3
  %90 = load ptr, ptr %89, align 8
  %91 = load ptr, ptr %9, align 8
  %92 = getelementptr inbounds %struct.OSQPWorkspace_, ptr %91, i32 0, i32 17
  %93 = load ptr, ptr %92, align 8
  %94 = load ptr, ptr %9, align 8
  %95 = getelementptr inbounds %struct.OSQPWorkspace_, ptr %94, i32 0, i32 18
  %96 = load ptr, ptr %95, align 8
  call void @OSQPMatrix_Atxpy(ptr noundef %90, ptr noundef %93, ptr noundef %96, double noundef 1.000000e+00, double noundef 0.000000e+00)
  %97 = load ptr, ptr %8, align 8
  %98 = getelementptr inbounds %struct.OSQPSettings, ptr %97, i32 0, i32 6
  %99 = load i64, ptr %98, align 8
  %100 = icmp ne i64 %99, 0
  br i1 %100, label %101, label %118

101:                                              ; preds = %85
  %102 = load ptr, ptr %8, align 8
  %103 = getelementptr inbounds %struct.OSQPSettings, ptr %102, i32 0, i32 25
  %104 = load i64, ptr %103, align 8
  %105 = icmp ne i64 %104, 0
  br i1 %105, label %118, label %106

106:                                              ; preds = %101
  %107 = load ptr, ptr %9, align 8
  %108 = getelementptr inbounds %struct.OSQPWorkspace_, ptr %107, i32 0, i32 18
  %109 = load ptr, ptr %108, align 8
  %110 = load ptr, ptr %9, align 8
  %111 = getelementptr inbounds %struct.OSQPWorkspace_, ptr %110, i32 0, i32 18
  %112 = load ptr, ptr %111, align 8
  %113 = load ptr, ptr %9, align 8
  %114 = getelementptr inbounds %struct.OSQPWorkspace_, ptr %113, i32 0, i32 25
  %115 = load ptr, ptr %114, align 8
  %116 = getelementptr inbounds %struct.OSQPScaling, ptr %115, i32 0, i32 4
  %117 = load ptr, ptr %116, align 8
  call void @OSQPVectorf_ew_prod(ptr noundef %109, ptr noundef %112, ptr noundef %117)
  br label %118

118:                                              ; preds = %106, %101, %85
  %119 = load ptr, ptr %9, align 8
  %120 = getelementptr inbounds %struct.OSQPWorkspace_, ptr %119, i32 0, i32 18
  %121 = load ptr, ptr %120, align 8
  %122 = call double @OSQPVectorf_norm_inf(ptr noundef %121)
  %123 = load double, ptr %5, align 8
  %124 = load double, ptr %6, align 8
  %125 = fmul double %123, %124
  %126 = fcmp olt double %122, %125
  %127 = zext i1 %126 to i32
  %128 = sext i32 %127 to i64
  store i64 %128, ptr %3, align 8
  br label %131

129:                                              ; preds = %62
  br label %130

130:                                              ; preds = %129, %59
  store i64 0, ptr %3, align 8
  br label %131

131:                                              ; preds = %130, %118
  %132 = load i64, ptr %3, align 8
  ret i64 %132
}