; Function Attrs: nounwind uwtable
define range(i64 0, 2) i64 @is_primal_infeasible(ptr noundef readonly captures(none) %0, double noundef %1) local_unnamed_addr #0 {
  %3 = load ptr, ptr %0, align 8
  %4 = getelementptr inbounds nuw i8, ptr %0, i64 24
  %5 = load ptr, ptr %4, align 8
  %6 = getelementptr inbounds nuw i8, ptr %5, i64 136
  %7 = load ptr, ptr %6, align 8
  %8 = load ptr, ptr %5, align 8
  %9 = getelementptr inbounds nuw i8, ptr %8, i64 40
  %10 = load ptr, ptr %9, align 8
  %11 = getelementptr inbounds nuw i8, ptr %8, i64 48
  %12 = load ptr, ptr %11, align 8
  tail call void @OSQPVectorf_project_polar_reccone(ptr noundef %7, ptr noundef %10, ptr noundef %12, double noundef 1.000000e+26) #9
  %13 = getelementptr inbounds nuw i8, ptr %3, i64 48
  %14 = load i64, ptr %13, align 8
  %.not = icmp eq i64 %14, 0
  br i1 %.not, label %26, label %15

15:                                               ; preds = %2
  %16 = getelementptr inbounds nuw i8, ptr %3, i64 200
  %17 = load i64, ptr %16, align 8
  %.not31 = icmp eq i64 %17, 0
  br i1 %.not31, label %18, label %26

18:                                               ; preds = %15
  %19 = getelementptr inbounds nuw i8, ptr %5, i64 168
  %20 = load ptr, ptr %19, align 8
  %21 = getelementptr inbounds nuw i8, ptr %5, i64 200
  %22 = load ptr, ptr %21, align 8
  %23 = getelementptr inbounds nuw i8, ptr %22, i64 16
  %24 = load ptr, ptr %23, align 8
  %25 = load ptr, ptr %6, align 8
  tail call void @OSQPVectorf_ew_prod(ptr noundef %20, ptr noundef %24, ptr noundef %25) #9
  br label %26

26:                                               ; preds = %2, %15, %18
  %.sink.in = phi ptr [ %19, %18 ], [ %6, %15 ], [ %6, %2 ]
  %.sink = load ptr, ptr %.sink.in, align 8
  %27 = tail call double @OSQPVectorf_norm_inf(ptr noundef %.sink) #9
  %28 = fcmp ogt double %27, 0x39B4484BFEEBC29F
  br i1 %28, label %29, label %65

29:                                               ; preds = %26
  %30 = load ptr, ptr %5, align 8
  %31 = getelementptr inbounds nuw i8, ptr %30, i64 48
  %32 = load ptr, ptr %31, align 8
  %33 = load ptr, ptr %6, align 8
  %34 = tail call double @OSQPVectorf_dot_prod_signed(ptr noundef %32, ptr noundef %33, i64 noundef 1) #9
  %35 = load ptr, ptr %5, align 8
  %36 = getelementptr inbounds nuw i8, ptr %35, i64 40
  %37 = load ptr, ptr %36, align 8
  %38 = load ptr, ptr %6, align 8
  %39 = tail call double @OSQPVectorf_dot_prod_signed(ptr noundef %37, ptr noundef %38, i64 noundef -1) #9
  %40 = fadd double %34, %39
  %41 = fcmp olt double %40, 0.000000e+00
  br i1 %41, label %42, label %65

42:                                               ; preds = %29
  %43 = load ptr, ptr %5, align 8
  %44 = getelementptr inbounds nuw i8, ptr %43, i64 24
  %45 = load ptr, ptr %44, align 8
  %46 = load ptr, ptr %6, align 8
  %47 = getelementptr inbounds nuw i8, ptr %5, i64 144
  %48 = load ptr, ptr %47, align 8
  tail call void @OSQPMatrix_Atxpy(ptr noundef %45, ptr noundef %46, ptr noundef %48, double noundef 1.000000e+00, double noundef 0.000000e+00) #9
  %49 = load i64, ptr %13, align 8
  %.not32 = icmp eq i64 %49, 0
  br i1 %.not32, label %59, label %50

50:                                               ; preds = %42
  %51 = getelementptr inbounds nuw i8, ptr %3, i64 200
  %52 = load i64, ptr %51, align 8
  %.not33 = icmp eq i64 %52, 0
  br i1 %.not33, label %53, label %59

53:                                               ; preds = %50
  %54 = load ptr, ptr %47, align 8
  %55 = getelementptr inbounds nuw i8, ptr %5, i64 200
  %56 = load ptr, ptr %55, align 8
  %57 = getelementptr inbounds nuw i8, ptr %56, i64 32
  %58 = load ptr, ptr %57, align 8
  tail call void @OSQPVectorf_ew_prod(ptr noundef %54, ptr noundef %54, ptr noundef %58) #9
  br label %59

59:                                               ; preds = %53, %50, %42
  %60 = load ptr, ptr %47, align 8
  %61 = tail call double @OSQPVectorf_norm_inf(ptr noundef %60) #9
  %62 = fmul double %1, %27
  %63 = fcmp olt double %61, %62
  %64 = zext i1 %63 to i64
  br label %65

65:                                               ; preds = %26, %29, %59
  %.0 = phi i64 [ %64, %59 ], [ 0, %29 ], [ 0, %26 ]
  ret i64 %.0
}